ARM GAS  C:\Users\Kurty\AppData\Local\Temp\ccCVwcxK.s 			page 1


   1              		.syntax unified
   2              		.cpu cortex-m3
   3              		.fpu softvfp
   4              		.eabi_attribute 20, 1
   5              		.eabi_attribute 21, 1
   6              		.eabi_attribute 23, 3
   7              		.eabi_attribute 24, 1
   8              		.eabi_attribute 25, 1
   9              		.eabi_attribute 26, 1
  10              		.eabi_attribute 30, 1
  11              		.eabi_attribute 34, 1
  12              		.eabi_attribute 18, 4
  13              		.thumb
  14              		.syntax unified
  15              		.file	"main.c"
  16              		.text
  17              	.Ltext0:
  18              		.cfi_sections	.debug_frame
  19              		.section	.text.sleepMode,"ax",%progbits
  20              		.align	2
  21              		.global	sleepMode
  22              		.thumb
  23              		.thumb_func
  24              		.type	sleepMode, %function
  25              	sleepMode:
  26              	.LFB63:
  27              		.file 1 "main.c"
   1:main.c        **** /* ========================================
   2:main.c        ****  *
   3:main.c        ****  * Copyright YOUR COMPANY, THE YEAR
   4:main.c        ****  * All Rights Reserved
   5:main.c        ****  * UNPUBLISHED, LICENSED SOFTWARE.
   6:main.c        ****  *
   7:main.c        ****  * CONFIDENTIAL AND PROPRIETARY INFORMATION
   8:main.c        ****  * WHICH IS THE PROPERTY OF your company.
   9:main.c        ****  *
  10:main.c        ****  * ========================================
  11:main.c        **** */
  12:main.c        **** #include "project.h"
  13:main.c        **** #include "tgmath.h" 
  14:main.c        **** 
  15:main.c        **** void saveDigitsToRAM();
  16:main.c        **** void writeDisplay();
  17:main.c        **** 
  18:main.c        **** void pulseDot();
  19:main.c        **** void measurePulse();
  20:main.c        **** void startSequence();
  21:main.c        **** int getDigitIndex(int inputIndex);
  22:main.c        **** 
  23:main.c        **** CY_ISR(sleepMode) {//timer to activate this ISR enabled once finger removed, enabled by default at 
  28              		.loc 1 23 0
  29              		.cfi_startproc
  30              		@ args = 0, pretend = 0, frame = 0
  31              		@ frame_needed = 0, uses_anonymous_args = 0
  32              		@ link register save eliminated.
  33 0000 7047     		bx	lr
  34              		.cfi_endproc
ARM GAS  C:\Users\Kurty\AppData\Local\Temp\ccCVwcxK.s 			page 2


  35              	.LFE63:
  36              		.size	sleepMode, .-sleepMode
  37 0002 00BF     		.section	.text.measurePulse,"ax",%progbits
  38              		.align	2
  39              		.global	measurePulse
  40              		.thumb
  41              		.thumb_func
  42              		.type	measurePulse, %function
  43              	measurePulse:
  44              	.LFB64:
  24:main.c        ****     // triggered once every second by 1Hz timer
  25:main.c        ****     // turn on IR LEDs
  26:main.c        ****     // check for phototransistor reception somehow
  27:main.c        ****     // if phototransistor receives input, activate other timer to begin measurement and disable the
  28:main.c        ****     // if not, end this ISR and wait for it to be triggered again
  29:main.c        **** }
  30:main.c        **** 
  31:main.c        **** void measurePulse() {
  45              		.loc 1 31 0
  46              		.cfi_startproc
  47              		@ args = 0, pretend = 0, frame = 0
  48              		@ frame_needed = 0, uses_anonymous_args = 0
  49              		@ link register save eliminated.
  50 0000 7047     		bx	lr
  51              		.cfi_endproc
  52              	.LFE64:
  53              		.size	measurePulse, .-measurePulse
  54              		.global	__aeabi_i2d
  55              		.global	__aeabi_d2iz
  56              		.global	__aeabi_dsub
  57 0002 00BF     		.section	.text.getDigitIndex,"ax",%progbits
  58              		.align	2
  59              		.global	getDigitIndex
  60              		.thumb
  61              		.thumb_func
  62              		.type	getDigitIndex, %function
  63              	getDigitIndex:
  64              	.LFB66:
  32:main.c        ****     // 
  33:main.c        **** }
  34:main.c        **** 
  35:main.c        **** // hex values to be sent to 7 seg display for active low
  36:main.c        **** // these could be preprocessor commands instead (#define)
  37:main.c        **** int zero = 0xC0;
  38:main.c        **** int one = 0xF9;
  39:main.c        **** int two = 0xA4;
  40:main.c        **** int three = 0xB0;
  41:main.c        **** int four = 0x99;
  42:main.c        **** int five = 0x92;
  43:main.c        **** int six = 0x82;
  44:main.c        **** int seven = 0xF8;
  45:main.c        **** int eight = 0x80;
  46:main.c        **** int nine = 0x98;
  47:main.c        **** 
  48:main.c        **** 
  49:main.c        **** // digit variables (not completely necessary, but a good indicator of one-hot display encoding)
  50:main.c        **** int digitThree = 1;
ARM GAS  C:\Users\Kurty\AppData\Local\Temp\ccCVwcxK.s 			page 3


  51:main.c        **** int digitTwo = 2;
  52:main.c        **** int digitOne = 4;
  53:main.c        **** int digitZero = 8;
  54:main.c        **** 
  55:main.c        **** int detectFlag;
  56:main.c        **** int detectFlag;
  57:main.c        **** 
  58:main.c        **** long unsigned int displayData[4]; // 0 = ones digit, MSB = decimal point, bits 0 to 7 are the numbe
  59:main.c        **** int digit[4]; // should be a local var
  60:main.c        **** 
  61:main.c        **** 
  62:main.c        **** int main(void)
  63:main.c        **** {
  64:main.c        ****     CyGlobalIntEnable; /* Enable global interrupts. */
  65:main.c        ****     isr_1_ClearPending();
  66:main.c        ****     isr_1_StartEx(sleepMode);
  67:main.c        ****     
  68:main.c        ****     
  69:main.c        ****     //One_Hz_Timer_Enable(); //unnecessary, _Start encompasses this
  70:main.c        ****     One_Hz_Timer_Start(); // enabled by default, as unit starts in sleep mode
  71:main.c        ****     
  72:main.c        ****     /*
  73:main.c        ****     EEPROM_Start();
  74:main.c        ****     EEPROM_WriteByte(15,0); // we are group 15
  75:main.c        ****     //EEPROM_WriteByte(units,1);
  76:main.c        ****     int teamNumber = EEPROM_ReadByte(0);
  77:main.c        ****     */
  78:main.c        ****     EEPROM_Start();
  79:main.c        ****     int teamNumber = EEPROM_ReadByte(0);
  80:main.c        ****     
  81:main.c        ****     digit[0] = 1;
  82:main.c        ****     digit[1] = 2;//testing % 10;
  83:main.c        ****     digit[2] = 3;
  84:main.c        ****     digit[3] = 4;
  85:main.c        ****     saveDigitsToRAM();
  86:main.c        ****     
  87:main.c        ****     for(;;) {
  88:main.c        ****         //Finger detecting thresholding
  89:main.c        ****         /*
  90:main.c        ****         if (lux > threshold) { //Main loop for detected finger
  91:main.c        ****             detectFlag = 1; 
  92:main.c        ****         }
  93:main.c        ****         else {  //pulsing if no detectoin
  94:main.c        ****             displayData[3] = powl(2,7);
  95:main.c        ****             Seven_Segment_6(1);
  96:main.c        ****         }
  97:main.c        ****         */
  98:main.c        ****         
  99:main.c        ****         
 100:main.c        ****         
 101:main.c        **** 
 102:main.c        ****         
 103:main.c        ****         writeDisplay(displayData);
 104:main.c        ****     }
 105:main.c        **** }
 106:main.c        **** 
 107:main.c        **** int getDigitIndex(int inputIndex) {
ARM GAS  C:\Users\Kurty\AppData\Local\Temp\ccCVwcxK.s 			page 4


  65              		.loc 1 107 0
  66              		.cfi_startproc
  67              		@ args = 0, pretend = 0, frame = 0
  68              		@ frame_needed = 0, uses_anonymous_args = 0
  69              	.LVL0:
  70              		.loc 1 107 0
  71 0000 08B5     		push	{r3, lr}
  72              		.cfi_def_cfa_offset 8
  73              		.cfi_offset 3, -8
  74              		.cfi_offset 14, -4
 108:main.c        **** 	int currentDigit = powl(2,inputIndex);
  75              		.loc 1 108 0
  76 0002 FFF7FEFF 		bl	__aeabi_i2d
  77              	.LVL1:
  78 0006 0246     		mov	r2, r0
  79 0008 0B46     		mov	r3, r1
  80 000a 0020     		movs	r0, #0
  81 000c 4FF08041 		mov	r1, #1073741824
  82 0010 FFF7FEFF 		bl	powl
  83              	.LVL2:
  84 0014 FFF7FEFF 		bl	__aeabi_d2iz
  85              	.LVL3:
 109:main.c        **** 	int currentDigitInverted = powl(2,8)-1 - currentDigit;
  86              		.loc 1 109 0
  87 0018 FFF7FEFF 		bl	__aeabi_i2d
  88              	.LVL4:
  89 001c 0246     		mov	r2, r0
  90 001e 0B46     		mov	r3, r1
  91 0020 03A1     		adr	r1, .L5
  92 0022 D1E90001 		ldrd	r0, [r1]
  93 0026 FFF7FEFF 		bl	__aeabi_dsub
  94              	.LVL5:
  95 002a FFF7FEFF 		bl	__aeabi_d2iz
  96              	.LVL6:
 110:main.c        **** 	return currentDigitInverted;
 111:main.c        **** }
  97              		.loc 1 111 0
  98 002e 08BD     		pop	{r3, pc}
  99              	.L6:
 100              		.align	3
 101              	.L5:
 102 0030 00000000 		.word	0
 103 0034 00E06F40 		.word	1081073664
 104              		.cfi_endproc
 105              	.LFE66:
 106              		.size	getDigitIndex, .-getDigitIndex
 107              		.global	__aeabi_ui2d
 108              		.global	__aeabi_dadd
 109              		.global	__aeabi_d2uiz
 110              		.section	.text.saveDigitsToRAM,"ax",%progbits
 111              		.align	2
 112              		.global	saveDigitsToRAM
 113              		.thumb
 114              		.thumb_func
 115              		.type	saveDigitsToRAM, %function
 116              	saveDigitsToRAM:
 117              	.LFB67:
ARM GAS  C:\Users\Kurty\AppData\Local\Temp\ccCVwcxK.s 			page 5


 112:main.c        **** 
 113:main.c        **** void saveDigitsToRAM() {
 118              		.loc 1 113 0
 119              		.cfi_startproc
 120              		@ args = 0, pretend = 0, frame = 0
 121              		@ frame_needed = 0, uses_anonymous_args = 0
 122 0000 38B5     		push	{r3, r4, r5, lr}
 123              		.cfi_def_cfa_offset 16
 124              		.cfi_offset 3, -16
 125              		.cfi_offset 4, -12
 126              		.cfi_offset 5, -8
 127              		.cfi_offset 14, -4
 128              	.LVL7:
 129              	.LBB2:
 114:main.c        ****     for(int index = 0; index < 4; index++) { // loop through digits 0 to 3
 130              		.loc 1 114 0
 131 0002 0024     		movs	r4, #0
 132 0004 56E0     		b	.L8
 133              	.LVL8:
 134              	.L22:
 115:main.c        ****         //int currentDigit = powl(2,index);
 116:main.c        ****         //Digit_Reg_Write(currentDigit);
 117:main.c        ****         
 118:main.c        ****         switch(digit[index]) {
 135              		.loc 1 118 0
 136 0006 2D4B     		ldr	r3, .L24
 137 0008 53F82430 		ldr	r3, [r3, r4, lsl #2]
 138 000c 092B     		cmp	r3, #9
 139 000e 41D8     		bhi	.L9
 140 0010 DFE803F0 		tbb	[pc, r3]
 141              	.L11:
 142 0014 05       		.byte	(.L10-.L11)/2
 143 0015 0B       		.byte	(.L12-.L11)/2
 144 0016 11       		.byte	(.L13-.L11)/2
 145 0017 17       		.byte	(.L14-.L11)/2
 146 0018 1D       		.byte	(.L15-.L11)/2
 147 0019 23       		.byte	(.L16-.L11)/2
 148 001a 29       		.byte	(.L17-.L11)/2
 149 001b 2F       		.byte	(.L18-.L11)/2
 150 001c 35       		.byte	(.L19-.L11)/2
 151 001d 3B       		.byte	(.L20-.L11)/2
 152              		.p2align 1
 153              	.L10:
 119:main.c        ****         case 0:
 120:main.c        ****             //Seven_Segment_Reg_Write(zero);
 121:main.c        ****             displayData[index] = zero;
 154              		.loc 1 121 0
 155 001e 284B     		ldr	r3, .L24+4
 156 0020 1A68     		ldr	r2, [r3]
 157 0022 284B     		ldr	r3, .L24+8
 158 0024 43F82420 		str	r2, [r3, r4, lsl #2]
 122:main.c        ****             break;
 159              		.loc 1 122 0
 160 0028 34E0     		b	.L9
 161              	.L12:
 123:main.c        ****         case 1:
 124:main.c        ****             //Seven_Segment_Reg_Write(one);
ARM GAS  C:\Users\Kurty\AppData\Local\Temp\ccCVwcxK.s 			page 6


 125:main.c        ****             displayData[index] = one;
 162              		.loc 1 125 0
 163 002a 254B     		ldr	r3, .L24+4
 164 002c 5A68     		ldr	r2, [r3, #4]
 165 002e 254B     		ldr	r3, .L24+8
 166 0030 43F82420 		str	r2, [r3, r4, lsl #2]
 126:main.c        ****             break;
 167              		.loc 1 126 0
 168 0034 2EE0     		b	.L9
 169              	.L13:
 127:main.c        ****         case 2:
 128:main.c        ****             //Seven_Segment_Reg_Write(two);
 129:main.c        ****             displayData[index] = two;
 170              		.loc 1 129 0
 171 0036 224B     		ldr	r3, .L24+4
 172 0038 9A68     		ldr	r2, [r3, #8]
 173 003a 224B     		ldr	r3, .L24+8
 174 003c 43F82420 		str	r2, [r3, r4, lsl #2]
 130:main.c        ****             break;
 175              		.loc 1 130 0
 176 0040 28E0     		b	.L9
 177              	.L14:
 131:main.c        ****         case 3:
 132:main.c        ****             //Seven_Segment_Reg_Write(three);
 133:main.c        ****             displayData[index] = three;
 178              		.loc 1 133 0
 179 0042 1F4B     		ldr	r3, .L24+4
 180 0044 DA68     		ldr	r2, [r3, #12]
 181 0046 1F4B     		ldr	r3, .L24+8
 182 0048 43F82420 		str	r2, [r3, r4, lsl #2]
 134:main.c        ****             break;
 183              		.loc 1 134 0
 184 004c 22E0     		b	.L9
 185              	.L15:
 135:main.c        ****         case 4:
 136:main.c        ****             //Seven_Segment_Reg_Write(four);
 137:main.c        ****             displayData[index] = four;
 186              		.loc 1 137 0
 187 004e 1C4B     		ldr	r3, .L24+4
 188 0050 1A69     		ldr	r2, [r3, #16]
 189 0052 1C4B     		ldr	r3, .L24+8
 190 0054 43F82420 		str	r2, [r3, r4, lsl #2]
 138:main.c        ****             break;
 191              		.loc 1 138 0
 192 0058 1CE0     		b	.L9
 193              	.L16:
 139:main.c        ****         case 5:
 140:main.c        ****             //Seven_Segment_Reg_Write(five);
 141:main.c        ****             displayData[index] = five;
 194              		.loc 1 141 0
 195 005a 194B     		ldr	r3, .L24+4
 196 005c 5A69     		ldr	r2, [r3, #20]
 197 005e 194B     		ldr	r3, .L24+8
 198 0060 43F82420 		str	r2, [r3, r4, lsl #2]
 142:main.c        ****             break;
 199              		.loc 1 142 0
 200 0064 16E0     		b	.L9
ARM GAS  C:\Users\Kurty\AppData\Local\Temp\ccCVwcxK.s 			page 7


 201              	.L17:
 143:main.c        ****         case 6:
 144:main.c        ****             //Seven_Segment_Reg_Write(six);
 145:main.c        ****             displayData[index] = six;
 202              		.loc 1 145 0
 203 0066 164B     		ldr	r3, .L24+4
 204 0068 9A69     		ldr	r2, [r3, #24]
 205 006a 164B     		ldr	r3, .L24+8
 206 006c 43F82420 		str	r2, [r3, r4, lsl #2]
 146:main.c        ****             break;
 207              		.loc 1 146 0
 208 0070 10E0     		b	.L9
 209              	.L18:
 147:main.c        ****         case 7:
 148:main.c        ****             //Seven_Segment_Reg_Write(seven);
 149:main.c        ****             displayData[index] = seven;
 210              		.loc 1 149 0
 211 0072 134B     		ldr	r3, .L24+4
 212 0074 DA69     		ldr	r2, [r3, #28]
 213 0076 134B     		ldr	r3, .L24+8
 214 0078 43F82420 		str	r2, [r3, r4, lsl #2]
 150:main.c        ****             break;
 215              		.loc 1 150 0
 216 007c 0AE0     		b	.L9
 217              	.L19:
 151:main.c        ****         case 8:
 152:main.c        ****             //Seven_Segment_Reg_Write(eight);
 153:main.c        ****             displayData[index] = eight;
 218              		.loc 1 153 0
 219 007e 104B     		ldr	r3, .L24+4
 220 0080 1A6A     		ldr	r2, [r3, #32]
 221 0082 104B     		ldr	r3, .L24+8
 222 0084 43F82420 		str	r2, [r3, r4, lsl #2]
 154:main.c        ****             break;
 223              		.loc 1 154 0
 224 0088 04E0     		b	.L9
 225              	.L20:
 155:main.c        ****         case 9:
 156:main.c        ****             //Seven_Segment_Reg_Write(nine);
 157:main.c        ****             displayData[index] = nine;
 226              		.loc 1 157 0
 227 008a 0D4B     		ldr	r3, .L24+4
 228 008c 5A6A     		ldr	r2, [r3, #36]
 229 008e 0D4B     		ldr	r3, .L24+8
 230 0090 43F82420 		str	r2, [r3, r4, lsl #2]
 231              	.L9:
 158:main.c        ****             break;
 159:main.c        ****         }
 160:main.c        ****         
 161:main.c        ****         if(index == 1) { // 2nd most significant digit
 232              		.loc 1 161 0
 233 0094 012C     		cmp	r4, #1
 234 0096 0CD1     		bne	.L21
 162:main.c        ****             displayData[index] = displayData[index] + powl(2,7); //works
 235              		.loc 1 162 0
 236 0098 0A4D     		ldr	r5, .L24+8
 237 009a 55F82400 		ldr	r0, [r5, r4, lsl #2]
ARM GAS  C:\Users\Kurty\AppData\Local\Temp\ccCVwcxK.s 			page 8


 238 009e FFF7FEFF 		bl	__aeabi_ui2d
 239              	.LVL9:
 240 00a2 0022     		movs	r2, #0
 241 00a4 084B     		ldr	r3, .L24+12
 242 00a6 FFF7FEFF 		bl	__aeabi_dadd
 243              	.LVL10:
 244 00aa FFF7FEFF 		bl	__aeabi_d2uiz
 245              	.LVL11:
 246 00ae 45F82400 		str	r0, [r5, r4, lsl #2]
 247              	.L21:
 114:main.c        ****         //int currentDigit = powl(2,index);
 248              		.loc 1 114 0 discriminator 2
 249 00b2 0134     		adds	r4, r4, #1
 250              	.LVL12:
 251              	.L8:
 114:main.c        ****         //int currentDigit = powl(2,index);
 252              		.loc 1 114 0 is_stmt 0 discriminator 1
 253 00b4 032C     		cmp	r4, #3
 254 00b6 A6DD     		ble	.L22
 255              	.LBE2:
 163:main.c        ****         }
 164:main.c        ****     }
 165:main.c        ****     
 166:main.c        ****     // digit pin high = digit SELECTED
 167:main.c        ****     // segment pin low = segment ILLUMINATED
 168:main.c        **** }
 256              		.loc 1 168 0 is_stmt 1
 257 00b8 38BD     		pop	{r3, r4, r5, pc}
 258              	.LVL13:
 259              	.L25:
 260 00ba 00BF     		.align	2
 261              	.L24:
 262 00bc 00000000 		.word	digit
 263 00c0 00000000 		.word	.LANCHOR0
 264 00c4 00000000 		.word	displayData
 265 00c8 00006040 		.word	1080033280
 266              		.cfi_endproc
 267              	.LFE67:
 268              		.size	saveDigitsToRAM, .-saveDigitsToRAM
 269              		.section	.text.writeDisplay,"ax",%progbits
 270              		.align	2
 271              		.global	writeDisplay
 272              		.thumb
 273              		.thumb_func
 274              		.type	writeDisplay, %function
 275              	writeDisplay:
 276              	.LFB68:
 169:main.c        **** 
 170:main.c        **** void writeDisplay(long unsigned int displayData[4]) {
 277              		.loc 1 170 0
 278              		.cfi_startproc
 279              		@ args = 0, pretend = 0, frame = 0
 280              		@ frame_needed = 0, uses_anonymous_args = 0
 281              	.LVL14:
 282 0000 38B5     		push	{r3, r4, r5, lr}
 283              		.cfi_def_cfa_offset 16
 284              		.cfi_offset 3, -16
ARM GAS  C:\Users\Kurty\AppData\Local\Temp\ccCVwcxK.s 			page 9


 285              		.cfi_offset 4, -12
 286              		.cfi_offset 5, -8
 287              		.cfi_offset 14, -4
 288 0002 0546     		mov	r5, r0
 289              	.LVL15:
 290              	.LBB3:
 171:main.c        ****     for(int index = 0; index < 4; index++) { // loop through digits 0 to 3 (all digits)
 291              		.loc 1 171 0
 292 0004 0024     		movs	r4, #0
 293 0006 0DE0     		b	.L27
 294              	.LVL16:
 295              	.L28:
 296              	.LBB4:
 172:main.c        ****         int currentDigit = getDigitIndex(index);
 297              		.loc 1 172 0 discriminator 3
 298 0008 2046     		mov	r0, r4
 299 000a FFF7FEFF 		bl	getDigitIndex
 300              	.LVL17:
 173:main.c        ****         
 174:main.c        ****         Digit_Reg_Write(currentDigit); // correct way, just inverted bits
 301              		.loc 1 174 0 discriminator 3
 302 000e C0B2     		uxtb	r0, r0
 303              	.LVL18:
 304 0010 FFF7FEFF 		bl	Digit_Reg_Write
 305              	.LVL19:
 175:main.c        ****         //Digit_Reg_Write(15);
 176:main.c        ****         
 177:main.c        ****         Seven_Segment_Reg_Write(displayData[index]);
 306              		.loc 1 177 0 discriminator 3
 307 0014 15F82400 		ldrb	r0, [r5, r4, lsl #2]	@ zero_extendqisi2
 308 0018 FFF7FEFF 		bl	Seven_Segment_Reg_Write
 309              	.LVL20:
 178:main.c        ****         CyDelay(1); // for stability
 310              		.loc 1 178 0 discriminator 3
 311 001c 0120     		movs	r0, #1
 312 001e FFF7FEFF 		bl	CyDelay
 313              	.LVL21:
 314              	.LBE4:
 171:main.c        ****         int currentDigit = getDigitIndex(index);
 315              		.loc 1 171 0 discriminator 3
 316 0022 0134     		adds	r4, r4, #1
 317              	.LVL22:
 318              	.L27:
 171:main.c        ****         int currentDigit = getDigitIndex(index);
 319              		.loc 1 171 0 is_stmt 0 discriminator 1
 320 0024 032C     		cmp	r4, #3
 321 0026 EFDD     		ble	.L28
 322              	.LBE3:
 179:main.c        ****     }
 180:main.c        **** }
 323              		.loc 1 180 0 is_stmt 1
 324 0028 38BD     		pop	{r3, r4, r5, pc}
 325              		.cfi_endproc
 326              	.LFE68:
 327              		.size	writeDisplay, .-writeDisplay
 328 002a 00BF     		.section	.text.main,"ax",%progbits
 329              		.align	2
ARM GAS  C:\Users\Kurty\AppData\Local\Temp\ccCVwcxK.s 			page 10


 330              		.global	main
 331              		.thumb
 332              		.thumb_func
 333              		.type	main, %function
 334              	main:
 335              	.LFB65:
  63:main.c        ****     CyGlobalIntEnable; /* Enable global interrupts. */
 336              		.loc 1 63 0
 337              		.cfi_startproc
 338              		@ args = 0, pretend = 0, frame = 0
 339              		@ frame_needed = 0, uses_anonymous_args = 0
 340 0000 08B5     		push	{r3, lr}
 341              		.cfi_def_cfa_offset 8
 342              		.cfi_offset 3, -8
 343              		.cfi_offset 14, -4
  64:main.c        ****     isr_1_ClearPending();
 344              		.loc 1 64 0
 345              		.syntax unified
 346              	@ 64 "main.c" 1
 347 0002 62B6     		CPSIE   i
 348              	@ 0 "" 2
  65:main.c        ****     isr_1_StartEx(sleepMode);
 349              		.loc 1 65 0
 350              		.thumb
 351              		.syntax unified
 352 0004 FFF7FEFF 		bl	isr_1_ClearPending
 353              	.LVL23:
  66:main.c        ****     
 354              		.loc 1 66 0
 355 0008 0C48     		ldr	r0, .L33
 356 000a FFF7FEFF 		bl	isr_1_StartEx
 357              	.LVL24:
  70:main.c        ****     
 358              		.loc 1 70 0
 359 000e FFF7FEFF 		bl	One_Hz_Timer_Start
 360              	.LVL25:
  78:main.c        ****     int teamNumber = EEPROM_ReadByte(0);
 361              		.loc 1 78 0
 362 0012 FFF7FEFF 		bl	EEPROM_Start
 363              	.LVL26:
  79:main.c        ****     
 364              		.loc 1 79 0
 365 0016 0020     		movs	r0, #0
 366 0018 FFF7FEFF 		bl	EEPROM_ReadByte
 367              	.LVL27:
  81:main.c        ****     digit[1] = 2;//testing % 10;
 368              		.loc 1 81 0
 369 001c 084B     		ldr	r3, .L33+4
 370 001e 0122     		movs	r2, #1
 371 0020 1A60     		str	r2, [r3]
  82:main.c        ****     digit[2] = 3;
 372              		.loc 1 82 0
 373 0022 0222     		movs	r2, #2
 374 0024 5A60     		str	r2, [r3, #4]
  83:main.c        ****     digit[3] = 4;
 375              		.loc 1 83 0
 376 0026 0322     		movs	r2, #3
ARM GAS  C:\Users\Kurty\AppData\Local\Temp\ccCVwcxK.s 			page 11


 377 0028 9A60     		str	r2, [r3, #8]
  84:main.c        ****     saveDigitsToRAM();
 378              		.loc 1 84 0
 379 002a 0422     		movs	r2, #4
 380 002c DA60     		str	r2, [r3, #12]
  85:main.c        ****     
 381              		.loc 1 85 0
 382 002e FFF7FEFF 		bl	saveDigitsToRAM
 383              	.LVL28:
 384              	.L31:
 103:main.c        ****     }
 385              		.loc 1 103 0 discriminator 1
 386 0032 0448     		ldr	r0, .L33+8
 387 0034 FFF7FEFF 		bl	writeDisplay
 388              	.LVL29:
 389 0038 FBE7     		b	.L31
 390              	.L34:
 391 003a 00BF     		.align	2
 392              	.L33:
 393 003c 00000000 		.word	sleepMode
 394 0040 00000000 		.word	digit
 395 0044 00000000 		.word	displayData
 396              		.cfi_endproc
 397              	.LFE65:
 398              		.size	main, .-main
 399              		.section	.text.pulseDot,"ax",%progbits
 400              		.align	2
 401              		.global	pulseDot
 402              		.thumb
 403              		.thumb_func
 404              		.type	pulseDot, %function
 405              	pulseDot:
 406              	.LFB69:
 181:main.c        **** 
 182:main.c        **** void pulseDot() {
 407              		.loc 1 182 0
 408              		.cfi_startproc
 409              		@ args = 0, pretend = 0, frame = 0
 410              		@ frame_needed = 0, uses_anonymous_args = 0
 411 0000 10B5     		push	{r4, lr}
 412              		.cfi_def_cfa_offset 8
 413              		.cfi_offset 4, -8
 414              		.cfi_offset 14, -4
 183:main.c        ****     if(detectFlag == 0) { // dot is off
 415              		.loc 1 183 0
 416 0002 114B     		ldr	r3, .L39
 417 0004 1B68     		ldr	r3, [r3]
 418 0006 73B9     		cbnz	r3, .L36
 184:main.c        ****         displayData[3] = displayData[3] + powl(2,7);    //setting MSB of final digit high, will be 
 419              		.loc 1 184 0
 420 0008 104C     		ldr	r4, .L39+4
 421 000a E068     		ldr	r0, [r4, #12]
 422 000c FFF7FEFF 		bl	__aeabi_ui2d
 423              	.LVL30:
 424 0010 0022     		movs	r2, #0
 425 0012 0F4B     		ldr	r3, .L39+8
 426 0014 FFF7FEFF 		bl	__aeabi_dadd
ARM GAS  C:\Users\Kurty\AppData\Local\Temp\ccCVwcxK.s 			page 12


 427              	.LVL31:
 428 0018 FFF7FEFF 		bl	__aeabi_d2uiz
 429              	.LVL32:
 430 001c E060     		str	r0, [r4, #12]
 185:main.c        ****         detectFlag = 1;     //change trigger so that will change to turn off decimal next time step
 431              		.loc 1 185 0
 432 001e 0122     		movs	r2, #1
 433 0020 094B     		ldr	r3, .L39
 434 0022 1A60     		str	r2, [r3]
 435 0024 10BD     		pop	{r4, pc}
 436              	.L36:
 186:main.c        ****     }
 187:main.c        ****     else if(detectFlag == 1) {
 437              		.loc 1 187 0
 438 0026 012B     		cmp	r3, #1
 439 0028 0DD1     		bne	.L35
 188:main.c        ****         displayData[3] = displayData[3] - powl(2,7);
 440              		.loc 1 188 0
 441 002a 084C     		ldr	r4, .L39+4
 442 002c E068     		ldr	r0, [r4, #12]
 443 002e FFF7FEFF 		bl	__aeabi_ui2d
 444              	.LVL33:
 445 0032 0022     		movs	r2, #0
 446 0034 064B     		ldr	r3, .L39+8
 447 0036 FFF7FEFF 		bl	__aeabi_dsub
 448              	.LVL34:
 449 003a FFF7FEFF 		bl	__aeabi_d2uiz
 450              	.LVL35:
 451 003e E060     		str	r0, [r4, #12]
 189:main.c        ****         detectFlag = 0;
 452              		.loc 1 189 0
 453 0040 0022     		movs	r2, #0
 454 0042 014B     		ldr	r3, .L39
 455 0044 1A60     		str	r2, [r3]
 456              	.L35:
 457 0046 10BD     		pop	{r4, pc}
 458              	.L40:
 459              		.align	2
 460              	.L39:
 461 0048 00000000 		.word	detectFlag
 462 004c 00000000 		.word	displayData
 463 0050 00006040 		.word	1080033280
 464              		.cfi_endproc
 465              	.LFE69:
 466              		.size	pulseDot, .-pulseDot
 467              		.section	.text.startSequence,"ax",%progbits
 468              		.align	2
 469              		.global	startSequence
 470              		.thumb
 471              		.thumb_func
 472              		.type	startSequence, %function
 473              	startSequence:
 474              	.LFB70:
 190:main.c        ****     }
 191:main.c        **** }
 192:main.c        **** 
 193:main.c        **** void startSequence() {
ARM GAS  C:\Users\Kurty\AppData\Local\Temp\ccCVwcxK.s 			page 13


 475              		.loc 1 193 0
 476              		.cfi_startproc
 477              		@ args = 0, pretend = 0, frame = 0
 478              		@ frame_needed = 0, uses_anonymous_args = 0
 479 0000 10B5     		push	{r4, lr}
 480              		.cfi_def_cfa_offset 8
 481              		.cfi_offset 4, -8
 482              		.cfi_offset 14, -4
 483              	.LVL36:
 484              	.LBB5:
 194:main.c        ****     // blink all digits for 1 sec each
 195:main.c        **** 	for(int i=0; i<4; i++) {
 485              		.loc 1 195 0
 486 0002 0024     		movs	r4, #0
 487 0004 0FE0     		b	.L42
 488              	.LVL37:
 489              	.L43:
 490              	.LBB6:
 196:main.c        **** 		//displayData[i] = eight;
 197:main.c        ****         int currentDigit = getDigitIndex(i);
 491              		.loc 1 197 0 discriminator 3
 492 0006 2046     		mov	r0, r4
 493 0008 FFF7FEFF 		bl	getDigitIndex
 494              	.LVL38:
 198:main.c        ****         Digit_Reg_Write(currentDigit);
 495              		.loc 1 198 0 discriminator 3
 496 000c C0B2     		uxtb	r0, r0
 497              	.LVL39:
 498 000e FFF7FEFF 		bl	Digit_Reg_Write
 499              	.LVL40:
 199:main.c        ****         
 200:main.c        **** 		Seven_Segment_Reg_Write(eight);
 500              		.loc 1 200 0 discriminator 3
 501 0012 174B     		ldr	r3, .L45
 502 0014 93F82000 		ldrb	r0, [r3, #32]	@ zero_extendqisi2
 503 0018 FFF7FEFF 		bl	Seven_Segment_Reg_Write
 504              	.LVL41:
 201:main.c        ****         
 202:main.c        ****         CyDelay(1000);
 505              		.loc 1 202 0 discriminator 3
 506 001c 4FF47A70 		mov	r0, #1000
 507 0020 FFF7FEFF 		bl	CyDelay
 508              	.LVL42:
 509              	.LBE6:
 195:main.c        **** 		//displayData[i] = eight;
 510              		.loc 1 195 0 discriminator 3
 511 0024 0134     		adds	r4, r4, #1
 512              	.LVL43:
 513              	.L42:
 195:main.c        **** 		//displayData[i] = eight;
 514              		.loc 1 195 0 is_stmt 0 discriminator 1
 515 0026 032C     		cmp	r4, #3
 516 0028 EDDD     		ble	.L43
 517              	.LBE5:
 203:main.c        **** 	}
 204:main.c        ****     
 205:main.c        ****     // display group number
ARM GAS  C:\Users\Kurty\AppData\Local\Temp\ccCVwcxK.s 			page 14


 206:main.c        ****     int teamNumber = EEPROM_ReadByte(0);
 518              		.loc 1 206 0 is_stmt 1
 519 002a 0020     		movs	r0, #0
 520 002c FFF7FEFF 		bl	EEPROM_ReadByte
 521              	.LVL44:
 207:main.c        ****     
 208:main.c        ****     digit[0] = 0;
 522              		.loc 1 208 0
 523 0030 1049     		ldr	r1, .L45+4
 524 0032 0023     		movs	r3, #0
 525 0034 0B60     		str	r3, [r1]
 209:main.c        ****     digit[1] = 0; //testing % 10;
 526              		.loc 1 209 0
 527 0036 4B60     		str	r3, [r1, #4]
 210:main.c        ****     digit[2] = ((teamNumber/10) % 10);
 528              		.loc 1 210 0
 529 0038 0F4A     		ldr	r2, .L45+8
 530 003a 82FB0034 		smull	r3, r4, r2, r0
 531              	.LVL45:
 532 003e C317     		asrs	r3, r0, #31
 533 0040 C3EBA403 		rsb	r3, r3, r4, asr #2
 534 0044 82FB0324 		smull	r2, r4, r2, r3
 535 0048 DA17     		asrs	r2, r3, #31
 536 004a C2EBA402 		rsb	r2, r2, r4, asr #2
 537 004e 02EB8202 		add	r2, r2, r2, lsl #2
 538 0052 5400     		lsls	r4, r2, #1
 539 0054 1A1B     		subs	r2, r3, r4
 540 0056 8A60     		str	r2, [r1, #8]
 211:main.c        ****     digit[3] = (teamNumber % 10);
 541              		.loc 1 211 0
 542 0058 03EB8303 		add	r3, r3, r3, lsl #2
 543 005c 5A00     		lsls	r2, r3, #1
 544 005e 821A     		subs	r2, r0, r2
 545 0060 CA60     		str	r2, [r1, #12]
 212:main.c        ****     saveDigitsToRAM();
 546              		.loc 1 212 0
 547 0062 FFF7FEFF 		bl	saveDigitsToRAM
 548              	.LVL46:
 213:main.c        ****     writeDisplay(displayData);
 549              		.loc 1 213 0
 550 0066 0548     		ldr	r0, .L45+12
 551 0068 FFF7FEFF 		bl	writeDisplay
 552              	.LVL47:
 553 006c 10BD     		pop	{r4, pc}
 554              	.L46:
 555 006e 00BF     		.align	2
 556              	.L45:
 557 0070 00000000 		.word	.LANCHOR0
 558 0074 00000000 		.word	digit
 559 0078 67666666 		.word	1717986919
 560 007c 00000000 		.word	displayData
 561              		.cfi_endproc
 562              	.LFE70:
 563              		.size	startSequence, .-startSequence
 564              		.comm	digit,16,4
 565              		.comm	displayData,16,4
 566              		.comm	detectFlag,4,4
ARM GAS  C:\Users\Kurty\AppData\Local\Temp\ccCVwcxK.s 			page 15


 567              		.global	digitZero
 568              		.global	digitOne
 569              		.global	digitTwo
 570              		.global	digitThree
 571              		.global	nine
 572              		.global	eight
 573              		.global	seven
 574              		.global	six
 575              		.global	five
 576              		.global	four
 577              		.global	three
 578              		.global	two
 579              		.global	one
 580              		.global	zero
 581              		.data
 582              		.align	2
 583              		.set	.LANCHOR0,. + 0
 584              		.type	zero, %object
 585              		.size	zero, 4
 586              	zero:
 587 0000 C0000000 		.word	192
 588              		.type	one, %object
 589              		.size	one, 4
 590              	one:
 591 0004 F9000000 		.word	249
 592              		.type	two, %object
 593              		.size	two, 4
 594              	two:
 595 0008 A4000000 		.word	164
 596              		.type	three, %object
 597              		.size	three, 4
 598              	three:
 599 000c B0000000 		.word	176
 600              		.type	four, %object
 601              		.size	four, 4
 602              	four:
 603 0010 99000000 		.word	153
 604              		.type	five, %object
 605              		.size	five, 4
 606              	five:
 607 0014 92000000 		.word	146
 608              		.type	six, %object
 609              		.size	six, 4
 610              	six:
 611 0018 82000000 		.word	130
 612              		.type	seven, %object
 613              		.size	seven, 4
 614              	seven:
 615 001c F8000000 		.word	248
 616              		.type	eight, %object
 617              		.size	eight, 4
 618              	eight:
 619 0020 80000000 		.word	128
 620              		.type	nine, %object
 621              		.size	nine, 4
 622              	nine:
 623 0024 98000000 		.word	152
ARM GAS  C:\Users\Kurty\AppData\Local\Temp\ccCVwcxK.s 			page 16


 624              		.type	digitZero, %object
 625              		.size	digitZero, 4
 626              	digitZero:
 627 0028 08000000 		.word	8
 628              		.type	digitOne, %object
 629              		.size	digitOne, 4
 630              	digitOne:
 631 002c 04000000 		.word	4
 632              		.type	digitTwo, %object
 633              		.size	digitTwo, 4
 634              	digitTwo:
 635 0030 02000000 		.word	2
 636              		.type	digitThree, %object
 637              		.size	digitThree, 4
 638              	digitThree:
 639 0034 01000000 		.word	1
 640              		.text
 641              	.Letext0:
 642              		.file 2 "c:\\program files (x86)\\cypress\\psoc creator\\4.4\\psoc creator\\import\\gnu\\arm\\5.4.
 643              		.file 3 "c:\\program files (x86)\\cypress\\psoc creator\\4.4\\psoc creator\\import\\gnu\\arm\\5.4.
 644              		.file 4 "Generated_Source\\PSoC5/core_cm3.h"
 645              		.file 5 "c:\\program files (x86)\\cypress\\psoc creator\\4.4\\psoc creator\\import\\gnu\\arm\\5.4.
 646              		.file 6 "Generated_Source\\PSoC5/Digit_Reg.h"
 647              		.file 7 "Generated_Source\\PSoC5/Seven_Segment_Reg.h"
 648              		.file 8 "Generated_Source\\PSoC5/CyLib.h"
 649              		.file 9 "Generated_Source\\PSoC5/isr_1.h"
 650              		.file 10 "Generated_Source\\PSoC5/One_Hz_Timer.h"
 651              		.file 11 "Generated_Source\\PSoC5/EEPROM.h"